target datalayout = "e-m:e-p270:32:32-p271:32:32-p272:64:64-i64:64-i128:128-f80:128-n8:16:32:64-S128"
target triple = "x86_64-pc-linux-gnu"

; Function Attrs: nounwind uwtable
define internal void @blend_frames8_c(ptr noundef %0, i64 noundef %1, ptr noundef %2, i64 noundef %3, ptr noundef %4, i64 noundef %5, i64 noundef %6, i64 noundef %7, i32 noundef %8, i32 noundef %9, i32 noundef %10) #0 {
  %12 = alloca ptr, align 8
  %13 = alloca i64, align 8
  %14 = alloca ptr, align 8
  %15 = alloca i64, align 8
  %16 = alloca ptr, align 8
  %17 = alloca i64, align 8
  %18 = alloca i64, align 8
  %19 = alloca i64, align 8
  %20 = alloca i32, align 4
  %21 = alloca i32, align 4
  %22 = alloca i32, align 4
  %23 = alloca i32, align 4
  %24 = alloca i32, align 4
  %25 = alloca ptr, align 8
  %26 = alloca ptr, align 8
  %27 = alloca ptr, align 8
  %28 = alloca i32, align 4
  store ptr %0, ptr %12, align 8, !tbaa !19
  store i64 %1, ptr %13, align 8, !tbaa !21
  store ptr %2, ptr %14, align 8, !tbaa !19
  store i64 %3, ptr %15, align 8, !tbaa !21
  store ptr %4, ptr %16, align 8, !tbaa !19
  store i64 %5, ptr %17, align 8, !tbaa !21
  store i64 %6, ptr %18, align 8, !tbaa !21
  store i64 %7, ptr %19, align 8, !tbaa !21
  store i32 %8, ptr %20, align 4, !tbaa !22
  store i32 %9, ptr %21, align 4, !tbaa !22
  store i32 %10, ptr %22, align 4, !tbaa !22
  call void @llvm.lifetime.start.p0(i64 4, ptr %23) #11
  call void @llvm.lifetime.start.p0(i64 4, ptr %24) #11
  call void @llvm.lifetime.start.p0(i64 8, ptr %25) #11
  %29 = load ptr, ptr %16, align 8, !tbaa !19
  store ptr %29, ptr %25, align 8, !tbaa !19
  call void @llvm.lifetime.start.p0(i64 8, ptr %26) #11
  %30 = load ptr, ptr %12, align 8, !tbaa !19
  store ptr %30, ptr %26, align 8, !tbaa !19
  call void @llvm.lifetime.start.p0(i64 8, ptr %27) #11
  %31 = load ptr, ptr %14, align 8, !tbaa !19
  store ptr %31, ptr %27, align 8, !tbaa !19
  call void @llvm.lifetime.start.p0(i64 4, ptr %28) #11
  store i32 1, ptr %28, align 4, !tbaa !22
  %32 = load i32, ptr %28, align 4, !tbaa !22
  %33 = sext i32 %32 to i64
  %34 = load i64, ptr %18, align 8, !tbaa !21
  %35 = sdiv i64 %34, %33
  store i64 %35, ptr %18, align 8, !tbaa !21
  %36 = load i32, ptr %28, align 4, !tbaa !22
  %37 = sext i32 %36 to i64
  %38 = load i64, ptr %13, align 8, !tbaa !21
  %39 = sdiv i64 %38, %37
  store i64 %39, ptr %13, align 8, !tbaa !21
  %40 = load i32, ptr %28, align 4, !tbaa !22
  %41 = sext i32 %40 to i64
  %42 = load i64, ptr %15, align 8, !tbaa !21
  %43 = sdiv i64 %42, %41
  store i64 %43, ptr %15, align 8, !tbaa !21
  %44 = load i32, ptr %28, align 4, !tbaa !22
  %45 = sext i32 %44 to i64
  %46 = load i64, ptr %17, align 8, !tbaa !21
  %47 = sdiv i64 %46, %45
  store i64 %47, ptr %17, align 8, !tbaa !21
  store i32 0, ptr %23, align 4, !tbaa !22
  br label %48

48:                                               ; preds = %98, %11
  %49 = load i32, ptr %23, align 4, !tbaa !22
  %50 = sext i32 %49 to i64
  %51 = load i64, ptr %19, align 8, !tbaa !21
  %52 = icmp slt i64 %50, %51
  br i1 %52, label %53, label %101

53:                                               ; preds = %48
  store i32 0, ptr %24, align 4, !tbaa !22
  br label %54

54:                                               ; preds = %85, %53
  %55 = load i32, ptr %24, align 4, !tbaa !22
  %56 = sext i32 %55 to i64
  %57 = load i64, ptr %18, align 8, !tbaa !21
  %58 = icmp slt i64 %56, %57
  br i1 %58, label %59, label %88

59:                                               ; preds = %54
  %60 = load ptr, ptr %26, align 8, !tbaa !19
  %61 = load i32, ptr %24, align 4, !tbaa !22
  %62 = sext i32 %61 to i64
  %63 = getelementptr inbounds i8, ptr %60, i64 %62
  %64 = load i8, ptr %63, align 1, !tbaa !23
  %65 = zext i8 %64 to i32
  %66 = load i32, ptr %20, align 4, !tbaa !22
  %67 = mul nsw i32 %65, %66
  %68 = load ptr, ptr %27, align 8, !tbaa !19
  %69 = load i32, ptr %24, align 4, !tbaa !22
  %70 = sext i32 %69 to i64
  %71 = getelementptr inbounds i8, ptr %68, i64 %70
  %72 = load i8, ptr %71, align 1, !tbaa !23
  %73 = zext i8 %72 to i32
  %74 = load i32, ptr %21, align 4, !tbaa !22
  %75 = mul nsw i32 %73, %74
  %76 = add nsw i32 %67, %75
  %77 = load i32, ptr %22, align 4, !tbaa !22
  %78 = add nsw i32 %76, %77
  %79 = ashr i32 %78, 7
  %80 = trunc i32 %79 to i8
  %81 = load ptr, ptr %25, align 8, !tbaa !19
  %82 = load i32, ptr %24, align 4, !tbaa !22
  %83 = sext i32 %82 to i64
  %84 = getelementptr inbounds i8, ptr %81, i64 %83
  store i8 %80, ptr %84, align 1, !tbaa !23
  br label %85

85:                                               ; preds = %59
  %86 = load i32, ptr %24, align 4, !tbaa !22
  %87 = add nsw i32 %86, 1
  store i32 %87, ptr %24, align 4, !tbaa !22
  br label %54, !llvm.loop !24

88:                                               ; preds = %54
  %89 = load i64, ptr %13, align 8, !tbaa !21
  %90 = load ptr, ptr %26, align 8, !tbaa !19
  %91 = getelementptr inbounds i8, ptr %90, i64 %89
  store ptr %91, ptr %26, align 8, !tbaa !19
  %92 = load i64, ptr %15, align 8, !tbaa !21
  %93 = load ptr, ptr %27, align 8, !tbaa !19
  %94 = getelementptr inbounds i8, ptr %93, i64 %92
  store ptr %94, ptr %27, align 8, !tbaa !19
  %95 = load i64, ptr %17, align 8, !tbaa !21
  %96 = load ptr, ptr %25, align 8, !tbaa !19
  %97 = getelementptr inbounds i8, ptr %96, i64 %95
  store ptr %97, ptr %25, align 8, !tbaa !19
  br label %98

98:                                               ; preds = %88
  %99 = load i32, ptr %23, align 4, !tbaa !22
  %100 = add nsw i32 %99, 1
  store i32 %100, ptr %23, align 4, !tbaa !22
  br label %48, !llvm.loop !26

101:                                              ; preds = %48
  call void @llvm.lifetime.end.p0(i64 4, ptr %28) #11
  call void @llvm.lifetime.end.p0(i64 8, ptr %27) #11
  call void @llvm.lifetime.end.p0(i64 8, ptr %26) #11
  call void @llvm.lifetime.end.p0(i64 8, ptr %25) #11
  call void @llvm.lifetime.end.p0(i64 4, ptr %24) #11
  call void @llvm.lifetime.end.p0(i64 4, ptr %23) #11
  ret void
}