; Function Attrs: nofree norecurse nosync nounwind memory(argmem: readwrite) uwtable
define internal void @blend_frames8_c(ptr noundef readonly captures(none) %0, i64 noundef %1, ptr noundef readonly captures(none) %2, i64 noundef %3, ptr noundef writeonly captures(none) %4, i64 noundef %5, i64 noundef %6, i64 noundef %7, i32 noundef %8, i32 noundef %9, i32 noundef %10) #1 {
  %12 = icmp sgt i64 %7, 0
  %13 = icmp sgt i64 %6, 0
  %or.cond = and i1 %12, %13
  br i1 %or.cond, label %.preheader.us, label %._crit_edge41

.preheader.us:                                    ; preds = %11, %._crit_edge.us
  %indvars.iv45 = phi i64 [ %indvars.iv.next46, %._crit_edge.us ], [ 0, %11 ]
  %.040.us = phi ptr [ %29, %._crit_edge.us ], [ %2, %11 ]
  %.03139.us = phi ptr [ %28, %._crit_edge.us ], [ %0, %11 ]
  %.03238.us = phi ptr [ %30, %._crit_edge.us ], [ %4, %11 ]
  br label %14

14:                                               ; preds = %.preheader.us, %14
  %indvars.iv = phi i64 [ 0, %.preheader.us ], [ %indvars.iv.next, %14 ]
  %15 = getelementptr inbounds nuw i8, ptr %.03139.us, i64 %indvars.iv
  %16 = load i8, ptr %15, align 1, !tbaa !17
  %17 = zext i8 %16 to i32
  %18 = mul nsw i32 %8, %17
  %19 = getelementptr inbounds nuw i8, ptr %.040.us, i64 %indvars.iv
  %20 = load i8, ptr %19, align 1, !tbaa !17
  %21 = zext i8 %20 to i32
  %22 = mul nsw i32 %9, %21
  %23 = add i32 %18, %10
  %24 = add i32 %23, %22
  %25 = lshr i32 %24, 7
  %26 = trunc i32 %25 to i8
  %27 = getelementptr inbounds nuw i8, ptr %.03238.us, i64 %indvars.iv
  store i8 %26, ptr %27, align 1, !tbaa !17
  %indvars.iv.next = add nuw nsw i64 %indvars.iv, 1
  %exitcond.not = icmp eq i64 %indvars.iv.next, %6
  br i1 %exitcond.not, label %._crit_edge.us, label %14, !llvm.loop !18

._crit_edge.us:                                   ; preds = %14
  %28 = getelementptr inbounds i8, ptr %.03139.us, i64 %1
  %29 = getelementptr inbounds i8, ptr %.040.us, i64 %3
  %30 = getelementptr inbounds i8, ptr %.03238.us, i64 %5
  %indvars.iv.next46 = add nuw nsw i64 %indvars.iv45, 1
  %exitcond48.not = icmp eq i64 %indvars.iv.next46, %7
  br i1 %exitcond48.not, label %._crit_edge41, label %.preheader.us, !llvm.loop !20

._crit_edge41:                                    ; preds = %._crit_edge.us, %11
  ret void
}